target datalayout = "e-m:e-p270:32:32-p271:32:32-p272:64:64-i64:64-i128:128-f80:128-n8:16:32:64-S128"
target triple = "x86_64-pc-linux-gnu"

%struct.config_generic = type { ptr, i32, i32, ptr, ptr, i32, i32, i32, i32, i32, i32, i32, i32, i32, ptr, ptr, %struct.dlist_node, %struct.slist_node, %struct.slist_node, ptr, ptr, i32 }
%struct.dlist_node = type { ptr, ptr }
%struct.slist_node = type { ptr }
%struct.config_int = type { %struct.config_generic, ptr, i32, i32, i32, ptr, ptr, ptr, i32, ptr }
%struct.config_string = type { %struct.config_generic, ptr, ptr, ptr, ptr, ptr, ptr, ptr }
%struct.config_enum = type { %struct.config_generic, ptr, i32, ptr, ptr, ptr, ptr, i32, ptr }
%struct.dlist_head = type { %struct.dlist_node }
%struct.config_enum_entry = type { ptr, i32, i8 }
%struct.dlist_iter = type { ptr, ptr }

@.str.3 = private unnamed_addr constant [6 x i8] c"guc.c\00", align 1
@guc_nondef_list = internal global %struct.dlist_head zeroinitializer, align 8
@.str.55 = private unnamed_addr constant [37 x i8] c"could not find enum option %d for %s\00", align 1
@__func__.config_enum_lookup_by_value = private unnamed_addr constant [28 x i8] c"config_enum_lookup_by_value\00", align 1

; Function Attrs: nounwind uwtable
define dso_local ptr @config_enum_lookup_by_value(ptr noundef %0, i32 noundef %1) #0 {
  %3 = alloca ptr, align 8
  %4 = alloca ptr, align 8
  %5 = alloca i32, align 4
  %6 = alloca ptr, align 8
  %7 = alloca i32, align 4
  store ptr %0, ptr %4, align 8
  store i32 %1, ptr %5, align 4
  call void @llvm.lifetime.start.p0(i64 8, ptr %6) #16
  %8 = load ptr, ptr %4, align 8
  %9 = getelementptr inbounds nuw %struct.config_enum, ptr %8, i32 0, i32 3
  %10 = load ptr, ptr %9, align 8
  store ptr %10, ptr %6, align 8
  br label %11

11:                                               ; preds = %32, %2
  %12 = load ptr, ptr %6, align 8
  %13 = icmp ne ptr %12, null
  br i1 %13, label %14, label %19

14:                                               ; preds = %11
  %15 = load ptr, ptr %6, align 8
  %16 = getelementptr inbounds nuw %struct.config_enum_entry, ptr %15, i32 0, i32 0
  %17 = load ptr, ptr %16, align 8
  %18 = icmp ne ptr %17, null
  br label %19

19:                                               ; preds = %14, %11
  %20 = phi i1 [ false, %11 ], [ %18, %14 ]
  br i1 %20, label %21, label %35

21:                                               ; preds = %19
  %22 = load ptr, ptr %6, align 8
  %23 = getelementptr inbounds nuw %struct.config_enum_entry, ptr %22, i32 0, i32 1
  %24 = load i32, ptr %23, align 8
  %25 = load i32, ptr %5, align 4
  %26 = icmp eq i32 %24, %25
  br i1 %26, label %27, label %31

27:                                               ; preds = %21
  %28 = load ptr, ptr %6, align 8
  %29 = getelementptr inbounds nuw %struct.config_enum_entry, ptr %28, i32 0, i32 0
  %30 = load ptr, ptr %29, align 8
  store ptr %30, ptr %3, align 8
  store i32 1, ptr %7, align 4
  br label %51

31:                                               ; preds = %21
  br label %32

32:                                               ; preds = %31
  %33 = load ptr, ptr %6, align 8
  %34 = getelementptr inbounds nuw %struct.config_enum_entry, ptr %33, i32 1
  store ptr %34, ptr %6, align 8
  br label %11, !llvm.loop !43

35:                                               ; preds = %19
  br label %36

36:                                               ; preds = %35
  br i1 true, label %37, label %39

37:                                               ; preds = %36
  %38 = call zeroext i1 @errstart_cold(i32 noundef 21, ptr noundef null) #18
  br i1 %38, label %41, label %48

39:                                               ; preds = %36
  %40 = call zeroext i1 @errstart(i32 noundef 21, ptr noundef null)
  br i1 %40, label %41, label %48

41:                                               ; preds = %39, %37
  %42 = load i32, ptr %5, align 4
  %43 = load ptr, ptr %4, align 8
  %44 = getelementptr inbounds nuw %struct.config_enum, ptr %43, i32 0, i32 0
  %45 = getelementptr inbounds nuw %struct.config_generic, ptr %44, i32 0, i32 0
  %46 = load ptr, ptr %45, align 8
  %47 = call i32 (ptr, ...) @errmsg_internal(ptr noundef @.str.55, i32 noundef %42, ptr noundef %46)
  call void @errfinish(ptr noundef @.str.3, i32 noundef 3034, ptr noundef @__func__.config_enum_lookup_by_value)
  br label %48

48:                                               ; preds = %41, %39, %37
  unreachable

49:                                               ; No predecessors!
  br label %50

50:                                               ; preds = %49
  store ptr null, ptr %3, align 8
  store i32 1, ptr %7, align 4
  br label %51

51:                                               ; preds = %50, %27
  call void @llvm.lifetime.end.p0(i64 8, ptr %6) #16
  %52 = load ptr, ptr %3, align 8
  ret ptr %52
}

; Function Attrs: nounwind uwtable
define internal zeroext i1 @can_skip_gucvar(ptr noundef %0) #0 {
  %2 = alloca ptr, align 8
  store ptr %0, ptr %2, align 8
  %3 = load ptr, ptr %2, align 8
  %4 = getelementptr inbounds nuw %struct.config_generic, ptr %3, i32 0, i32 1
  %5 = load i32, ptr %4, align 8
  %6 = icmp eq i32 %5, 1
  br i1 %6, label %17, label %7

7:                                                ; preds = %1
  %8 = load ptr, ptr %2, align 8
  %9 = getelementptr inbounds nuw %struct.config_generic, ptr %8, i32 0, i32 1
  %10 = load i32, ptr %9, align 8
  %11 = icmp eq i32 %10, 0
  br i1 %11, label %17, label %12

12:                                               ; preds = %7
  %13 = load ptr, ptr %2, align 8
  %14 = getelementptr inbounds nuw %struct.config_generic, ptr %13, i32 0, i32 8
  %15 = load i32, ptr %14, align 4
  %16 = icmp eq i32 %15, 0
  br label %17

17:                                               ; preds = %12, %7, %1
  %18 = phi i1 [ true, %7 ], [ true, %1 ], [ %16, %12 ]
  ret i1 %18
}

; Function Attrs: nounwind uwtable
define internal i64 @estimate_variable_size(ptr noundef %0) #0 {
  %2 = alloca i64, align 8
  %3 = alloca ptr, align 8
  %4 = alloca i64, align 8
  %5 = alloca i64, align 8
  %6 = alloca i32, align 4
  %7 = alloca ptr, align 8
  %8 = alloca ptr, align 8
  %9 = alloca ptr, align 8
  store ptr %0, ptr %3, align 8
  call void @llvm.lifetime.start.p0(i64 8, ptr %4) #16
  call void @llvm.lifetime.start.p0(i64 8, ptr %5) #16
  store i64 0, ptr %5, align 8
  %10 = load ptr, ptr %3, align 8
  %11 = call zeroext i1 @can_skip_gucvar(ptr noundef %10)
  br i1 %11, label %12, label %13

12:                                               ; preds = %1
  store i64 0, ptr %2, align 8
  store i32 1, ptr %6, align 4
  br label %101

13:                                               ; preds = %1
  %14 = load ptr, ptr %3, align 8
  %15 = getelementptr inbounds nuw %struct.config_generic, ptr %14, i32 0, i32 0
  %16 = load ptr, ptr %15, align 8
  %17 = call i64 @strlen(ptr noundef %16) #17
  %18 = add i64 %17, 1
  store i64 %18, ptr %4, align 8
  %19 = load ptr, ptr %3, align 8
  %20 = getelementptr inbounds nuw %struct.config_generic, ptr %19, i32 0, i32 6
  %21 = load i32, ptr %20, align 4
  switch i32 %21, label %59 [
    i32 0, label %22
    i32 1, label %23
    i32 2, label %34
    i32 3, label %35
    i32 4, label %50
  ]

22:                                               ; preds = %13
  store i64 5, ptr %5, align 8
  br label %59

23:                                               ; preds = %13
  call void @llvm.lifetime.start.p0(i64 8, ptr %7) #16
  %24 = load ptr, ptr %3, align 8
  store ptr %24, ptr %7, align 8
  %25 = load ptr, ptr %7, align 8
  %26 = getelementptr inbounds nuw %struct.config_int, ptr %25, i32 0, i32 1
  %27 = load ptr, ptr %26, align 8
  %28 = load i32, ptr %27, align 4
  %29 = call i32 @llvm.abs.i32(i32 %28, i1 false)
  %30 = icmp slt i32 %29, 1000
  br i1 %30, label %31, label %32

31:                                               ; preds = %23
  store i64 4, ptr %5, align 8
  br label %33

32:                                               ; preds = %23
  store i64 11, ptr %5, align 8
  br label %33

33:                                               ; preds = %32, %31
  call void @llvm.lifetime.end.p0(i64 8, ptr %7) #16
  br label %59

34:                                               ; preds = %13
  store i64 25, ptr %5, align 8
  br label %59

35:                                               ; preds = %13
  call void @llvm.lifetime.start.p0(i64 8, ptr %8) #16
  %36 = load ptr, ptr %3, align 8
  store ptr %36, ptr %8, align 8
  %37 = load ptr, ptr %8, align 8
  %38 = getelementptr inbounds nuw %struct.config_string, ptr %37, i32 0, i32 1
  %39 = load ptr, ptr %38, align 8
  %40 = load ptr, ptr %39, align 8
  %41 = icmp ne ptr %40, null
  br i1 %41, label %42, label %48

42:                                               ; preds = %35
  %43 = load ptr, ptr %8, align 8
  %44 = getelementptr inbounds nuw %struct.config_string, ptr %43, i32 0, i32 1
  %45 = load ptr, ptr %44, align 8
  %46 = load ptr, ptr %45, align 8
  %47 = call i64 @strlen(ptr noundef %46) #17
  store i64 %47, ptr %5, align 8
  br label %49

48:                                               ; preds = %35
  store i64 0, ptr %5, align 8
  br label %49

49:                                               ; preds = %48, %42
  call void @llvm.lifetime.end.p0(i64 8, ptr %8) #16
  br label %59

50:                                               ; preds = %13
  call void @llvm.lifetime.start.p0(i64 8, ptr %9) #16
  %51 = load ptr, ptr %3, align 8
  store ptr %51, ptr %9, align 8
  %52 = load ptr, ptr %9, align 8
  %53 = load ptr, ptr %9, align 8
  %54 = getelementptr inbounds nuw %struct.config_enum, ptr %53, i32 0, i32 1
  %55 = load ptr, ptr %54, align 8
  %56 = load i32, ptr %55, align 4
  %57 = call ptr @config_enum_lookup_by_value(ptr noundef %52, i32 noundef %56)
  %58 = call i64 @strlen(ptr noundef %57) #17
  store i64 %58, ptr %5, align 8
  call void @llvm.lifetime.end.p0(i64 8, ptr %9) #16
  br label %59

59:                                               ; preds = %13, %50, %49, %34, %33, %22
  %60 = load i64, ptr %4, align 8
  %61 = load i64, ptr %5, align 8
  %62 = add i64 %61, 1
  %63 = call i64 @add_size(i64 noundef %60, i64 noundef %62)
  store i64 %63, ptr %4, align 8
  %64 = load ptr, ptr %3, align 8
  %65 = getelementptr inbounds nuw %struct.config_generic, ptr %64, i32 0, i32 20
  %66 = load ptr, ptr %65, align 8
  %67 = icmp ne ptr %66, null
  br i1 %67, label %68, label %75

68:                                               ; preds = %59
  %69 = load i64, ptr %4, align 8
  %70 = load ptr, ptr %3, align 8
  %71 = getelementptr inbounds nuw %struct.config_generic, ptr %70, i32 0, i32 20
  %72 = load ptr, ptr %71, align 8
  %73 = call i64 @strlen(ptr noundef %72) #17
  %74 = call i64 @add_size(i64 noundef %69, i64 noundef %73)
  store i64 %74, ptr %4, align 8
  br label %75

75:                                               ; preds = %68, %59
  %76 = load i64, ptr %4, align 8
  %77 = call i64 @add_size(i64 noundef %76, i64 noundef 1)
  store i64 %77, ptr %4, align 8
  %78 = load ptr, ptr %3, align 8
  %79 = getelementptr inbounds nuw %struct.config_generic, ptr %78, i32 0, i32 20
  %80 = load ptr, ptr %79, align 8
  %81 = icmp ne ptr %80, null
  br i1 %81, label %82, label %93

82:                                               ; preds = %75
  %83 = load ptr, ptr %3, align 8
  %84 = getelementptr inbounds nuw %struct.config_generic, ptr %83, i32 0, i32 20
  %85 = load ptr, ptr %84, align 8
  %86 = getelementptr inbounds i8, ptr %85, i64 0
  %87 = load i8, ptr %86, align 1
  %88 = sext i8 %87 to i32
  %89 = icmp ne i32 %88, 0
  br i1 %89, label %90, label %93

90:                                               ; preds = %82
  %91 = load i64, ptr %4, align 8
  %92 = call i64 @add_size(i64 noundef %91, i64 noundef 4)
  store i64 %92, ptr %4, align 8
  br label %93

93:                                               ; preds = %90, %82, %75
  %94 = load i64, ptr %4, align 8
  %95 = call i64 @add_size(i64 noundef %94, i64 noundef 4)
  store i64 %95, ptr %4, align 8
  %96 = load i64, ptr %4, align 8
  %97 = call i64 @add_size(i64 noundef %96, i64 noundef 4)
  store i64 %97, ptr %4, align 8
  %98 = load i64, ptr %4, align 8
  %99 = call i64 @add_size(i64 noundef %98, i64 noundef 4)
  store i64 %99, ptr %4, align 8
  %100 = load i64, ptr %4, align 8
  store i64 %100, ptr %2, align 8
  store i32 1, ptr %6, align 4
  br label %101

101:                                              ; preds = %93, %12
  call void @llvm.lifetime.end.p0(i64 8, ptr %5) #16
  call void @llvm.lifetime.end.p0(i64 8, ptr %4) #16
  %102 = load i64, ptr %2, align 8
  ret i64 %102
}

; Function Attrs: nounwind uwtable
define dso_local i64 @EstimateGUCStateSpace() #0 {
  %1 = alloca i64, align 8
  %2 = alloca %struct.dlist_iter, align 8
  %3 = alloca i32, align 4
  %4 = alloca i32, align 4
  %5 = alloca ptr, align 8
  %6 = alloca i32, align 4
  %7 = alloca i32, align 4
  call void @llvm.lifetime.start.p0(i64 8, ptr %1) #16
  call void @llvm.lifetime.start.p0(i64 16, ptr %2) #16
  store i64 8, ptr %1, align 8
  br label %8

8:                                                ; preds = %0
  br label %9

9:                                                ; preds = %8
  br label %10

10:                                               ; preds = %9
  store i32 1, ptr %3, align 4
  br label %11

11:                                               ; preds = %10
  br label %12

12:                                               ; preds = %11
  br label %13

13:                                               ; preds = %12
  store i32 1, ptr %4, align 4
  %14 = getelementptr inbounds nuw %struct.dlist_iter, ptr %2, i32 0, i32 1
  store ptr @guc_nondef_list, ptr %14, align 8
  %15 = getelementptr inbounds nuw %struct.dlist_iter, ptr %2, i32 0, i32 1
  %16 = load ptr, ptr %15, align 8
  %17 = getelementptr inbounds nuw %struct.dlist_node, ptr %16, i32 0, i32 1
  %18 = load ptr, ptr %17, align 8
  %19 = icmp ne ptr %18, null
  br i1 %19, label %20, label %25

20:                                               ; preds = %13
  %21 = getelementptr inbounds nuw %struct.dlist_iter, ptr %2, i32 0, i32 1
  %22 = load ptr, ptr %21, align 8
  %23 = getelementptr inbounds nuw %struct.dlist_node, ptr %22, i32 0, i32 1
  %24 = load ptr, ptr %23, align 8
  br label %28

25:                                               ; preds = %13
  %26 = getelementptr inbounds nuw %struct.dlist_iter, ptr %2, i32 0, i32 1
  %27 = load ptr, ptr %26, align 8
  br label %28

28:                                               ; preds = %25, %20
  %29 = phi ptr [ %24, %20 ], [ %27, %25 ]
  %30 = getelementptr inbounds nuw %struct.dlist_iter, ptr %2, i32 0, i32 0
  store ptr %29, ptr %30, align 8
  br label %31

31:                                               ; preds = %51, %28
  %32 = getelementptr inbounds nuw %struct.dlist_iter, ptr %2, i32 0, i32 0
  %33 = load ptr, ptr %32, align 8
  %34 = getelementptr inbounds nuw %struct.dlist_iter, ptr %2, i32 0, i32 1
  %35 = load ptr, ptr %34, align 8
  %36 = icmp ne ptr %33, %35
  br i1 %36, label %37, label %57

37:                                               ; preds = %31
  call void @llvm.lifetime.start.p0(i64 8, ptr %5) #16
  br label %38

38:                                               ; preds = %37
  br label %39

39:                                               ; preds = %38
  br label %40

40:                                               ; preds = %39
  store i32 1, ptr %6, align 4
  br label %41

41:                                               ; preds = %40
  br label %42

42:                                               ; preds = %41
  br label %43

43:                                               ; preds = %42
  store i32 1, ptr %7, align 4
  %44 = getelementptr inbounds nuw %struct.dlist_iter, ptr %2, i32 0, i32 0
  %45 = load ptr, ptr %44, align 8
  %46 = getelementptr inbounds i8, ptr %45, i64 -88
  store ptr %46, ptr %5, align 8
  %47 = load i64, ptr %1, align 8
  %48 = load ptr, ptr %5, align 8
  %49 = call i64 @estimate_variable_size(ptr noundef %48)
  %50 = call i64 @add_size(i64 noundef %47, i64 noundef %49)
  store i64 %50, ptr %1, align 8
  call void @llvm.lifetime.end.p0(i64 8, ptr %5) #16
  br label %51

51:                                               ; preds = %43
  %52 = getelementptr inbounds nuw %struct.dlist_iter, ptr %2, i32 0, i32 0
  %53 = load ptr, ptr %52, align 8
  %54 = getelementptr inbounds nuw %struct.dlist_node, ptr %53, i32 0, i32 1
  %55 = load ptr, ptr %54, align 8
  %56 = getelementptr inbounds nuw %struct.dlist_iter, ptr %2, i32 0, i32 0
  store ptr %55, ptr %56, align 8
  br label %31, !llvm.loop !59

57:                                               ; preds = %31
  %58 = load i64, ptr %1, align 8
  call void @llvm.lifetime.end.p0(i64 16, ptr %2) #16
  call void @llvm.lifetime.end.p0(i64 8, ptr %1) #16
  ret i64 %58
}