; Function Attrs: nounwind uwtable
define dso_local i64 @EstimateGUCStateSpace() local_unnamed_addr #0 {
  %1 = load ptr, ptr getelementptr inbounds nuw (i8, ptr @guc_nondef_list, i64 8), align 8
  %.not = icmp eq ptr %1, null
  %.not81831 = icmp eq ptr %1, @guc_nondef_list
  %.not818 = or i1 %.not, %.not81831
  br i1 %.not818, label %select.unfold._crit_edge, label %.lr.ph

.lr.ph:                                           ; preds = %0, %estimate_variable_size.exit
  %.020 = phi i64 [ %66, %estimate_variable_size.exit ], [ 8, %0 ]
  %.sroa.0.019 = phi ptr [ %68, %estimate_variable_size.exit ], [ %1, %0 ]
  %2 = getelementptr inbounds i8, ptr %.sroa.0.019, i64 -88
  %3 = getelementptr inbounds i8, ptr %.sroa.0.019, i64 -80
  %4 = load i32, ptr %3, align 8
  %switch.i.i = icmp ult i32 %4, 2
  br i1 %switch.i.i, label %estimate_variable_size.exit, label %can_skip_gucvar.exit.i

can_skip_gucvar.exit.i:                           ; preds = %.lr.ph
  %5 = getelementptr inbounds i8, ptr %.sroa.0.019, i64 -44
  %6 = load i32, ptr %5, align 4
  %7 = icmp eq i32 %6, 0
  br i1 %7, label %estimate_variable_size.exit, label %8

8:                                                ; preds = %can_skip_gucvar.exit.i
  %9 = load ptr, ptr %2, align 8
  %10 = tail call i64 @strlen(ptr noundef nonnull dereferenceable(1) %9) #30
  %11 = add i64 %10, 1
  %12 = getelementptr inbounds i8, ptr %.sroa.0.019, i64 -52
  %13 = load i32, ptr %12, align 4
  switch i32 %13, label %47 [
    i32 0, label %14
    i32 1, label %15
    i32 2, label %21
    i32 3, label %22
    i32 4, label %28
  ]

14:                                               ; preds = %8
  br label %47

15:                                               ; preds = %8
  %16 = getelementptr inbounds nuw i8, ptr %.sroa.0.019, i64 56
  %17 = load ptr, ptr %16, align 8
  %18 = load i32, ptr %17, align 4
  %19 = tail call i32 @llvm.abs.i32(i32 %18, i1 false)
  %20 = icmp slt i32 %19, 1000
  %..i = select i1 %20, i64 4, i64 11
  br label %47

21:                                               ; preds = %8
  br label %47

22:                                               ; preds = %8
  %23 = getelementptr inbounds nuw i8, ptr %.sroa.0.019, i64 56
  %24 = load ptr, ptr %23, align 8
  %25 = load ptr, ptr %24, align 8
  %.not.i = icmp eq ptr %25, null
  br i1 %.not.i, label %47, label %26

26:                                               ; preds = %22
  %27 = tail call i64 @strlen(ptr noundef nonnull dereferenceable(1) %25) #30
  br label %47

28:                                               ; preds = %8
  %29 = getelementptr inbounds nuw i8, ptr %.sroa.0.019, i64 56
  %30 = load ptr, ptr %29, align 8
  %31 = load i32, ptr %30, align 4
  %32 = getelementptr inbounds nuw i8, ptr %.sroa.0.019, i64 72
  %33 = load ptr, ptr %32, align 8
  %.not11.i.i = icmp eq ptr %33, null
  br i1 %.not11.i.i, label %.critedge.i.i, label %.lr.ph.i.preheader.i

.lr.ph.i.preheader.i:                             ; preds = %28
  %34 = load ptr, ptr %33, align 8
  %.not10.i34.i = icmp eq ptr %34, null
  br i1 %.not10.i34.i, label %.critedge.i.i, label %.lr.ph.i.preheader

.lr.ph.i.preheader:                               ; preds = %.lr.ph.i.preheader.i
  %35 = getelementptr inbounds nuw i8, ptr %33, i64 8
  %36 = load i32, ptr %35, align 8
  %37 = icmp eq i32 %36, %31
  br i1 %37, label %config_enum_lookup_by_value.exit.i, label %.lr.ph.i.i

.lr.ph.i.i:                                       ; preds = %.lr.ph.i.preheader, %.lr.ph.i
  %.012.i35.i17 = phi ptr [ %38, %.lr.ph.i ], [ %33, %.lr.ph.i.preheader ]
  %38 = getelementptr inbounds nuw i8, ptr %.012.i35.i17, i64 16
  %39 = load ptr, ptr %38, align 8
  %.not10.i.i = icmp eq ptr %39, null
  br i1 %.not10.i.i, label %.critedge.i.i, label %.lr.ph.i

.lr.ph.i:                                         ; preds = %.lr.ph.i.i
  %40 = getelementptr inbounds nuw i8, ptr %.012.i35.i17, i64 24
  %41 = load i32, ptr %40, align 8
  %42 = icmp eq i32 %41, %31
  br i1 %42, label %config_enum_lookup_by_value.exit.i, label %.lr.ph.i.i

.critedge.i.i:                                    ; preds = %.lr.ph.i.preheader.i, %28, %.lr.ph.i.i
  %43 = tail call zeroext i1 @errstart_cold(i32 noundef 21, ptr noundef null) #31
  tail call void @llvm.assume(i1 %43)
  %44 = load ptr, ptr %2, align 8
  %45 = tail call i32 (ptr, ...) @errmsg_internal(ptr noundef nonnull @.str.55, i32 noundef %31, ptr noundef %44) #29
  tail call void @errfinish(ptr noundef nonnull @.str.3, i32 noundef 3034, ptr noundef nonnull @__func__.config_enum_lookup_by_value) #29
  unreachable

config_enum_lookup_by_value.exit.i:               ; preds = %.lr.ph.i, %.lr.ph.i.preheader
  %.lcssa = phi ptr [ %34, %.lr.ph.i.preheader ], [ %39, %.lr.ph.i ]
  %46 = tail call i64 @strlen(ptr noundef nonnull dereferenceable(1) %.lcssa) #30
  br label %47

47:                                               ; preds = %config_enum_lookup_by_value.exit.i, %26, %22, %21, %15, %14, %8
  %.025.i = phi i64 [ 0, %8 ], [ %46, %config_enum_lookup_by_value.exit.i ], [ 25, %21 ], [ %..i, %15 ], [ 5, %14 ], [ %27, %26 ], [ 0, %22 ]
  %48 = add i64 %.025.i, 1
  %49 = tail call i64 @add_size(i64 noundef %11, i64 noundef %48) #29
  %50 = getelementptr inbounds nuw i8, ptr %.sroa.0.019, i64 40
  %51 = load ptr, ptr %50, align 8
  %.not30.i = icmp eq ptr %51, null
  br i1 %.not30.i, label %55, label %52

52:                                               ; preds = %47
  %53 = tail call i64 @strlen(ptr noundef nonnull dereferenceable(1) %51) #30
  %54 = tail call i64 @add_size(i64 noundef %49, i64 noundef %53) #29
  br label %55

55:                                               ; preds = %52, %47
  %.024.i = phi i64 [ %54, %52 ], [ %49, %47 ]
  %56 = tail call i64 @add_size(i64 noundef %.024.i, i64 noundef 1) #29
  %57 = load ptr, ptr %50, align 8
  %.not31.i = icmp eq ptr %57, null
  br i1 %.not31.i, label %62, label %58

58:                                               ; preds = %55
  %59 = load i8, ptr %57, align 1
  %.not32.i = icmp eq i8 %59, 0
  br i1 %.not32.i, label %62, label %60

60:                                               ; preds = %58
  %61 = tail call i64 @add_size(i64 noundef %56, i64 noundef 4) #29
  br label %62

62:                                               ; preds = %60, %58, %55
  %.1.i = phi i64 [ %61, %60 ], [ %56, %58 ], [ %56, %55 ]
  %63 = tail call i64 @add_size(i64 noundef %.1.i, i64 noundef 4) #29
  %64 = tail call i64 @add_size(i64 noundef %63, i64 noundef 4) #29
  %65 = tail call i64 @add_size(i64 noundef %64, i64 noundef 4) #29
  br label %estimate_variable_size.exit

estimate_variable_size.exit:                      ; preds = %.lr.ph, %can_skip_gucvar.exit.i, %62
  %.0.i = phi i64 [ %65, %62 ], [ 0, %can_skip_gucvar.exit.i ], [ 0, %.lr.ph ]
  %66 = tail call i64 @add_size(i64 noundef %.020, i64 noundef %.0.i) #29
  %67 = getelementptr inbounds nuw i8, ptr %.sroa.0.019, i64 8
  %68 = load ptr, ptr %67, align 8
  %.not8 = icmp eq ptr %68, @guc_nondef_list
  br i1 %.not8, label %select.unfold._crit_edge, label %.lr.ph, !llvm.loop !55

select.unfold._crit_edge:                         ; preds = %estimate_variable_size.exit, %0
  %.0.lcssa = phi i64 [ 8, %0 ], [ %66, %estimate_variable_size.exit ]
  ret i64 %.0.lcssa
}